(lp0
(lp1
S'olls'
p2
aI1
aa(lp3
S'hello'
p4
aI1
aa(lp5
S'grit'
p6
aI0
aa(lp7
S'grit'
p8
aI1
aa(lp9
S'grit'
p10
aI3
aa(lp11
S'grit'
p12
aI2
aa(lp13
S'olls'
p14
aI19
aa(lp15
S'1234567890qwertyuiopsdfghjkl;xcvfbgnmj1qazxder45rtgfbgy6x1b[18~7'
p16
aI7
aa(lp17
S'billy'
p18
aI0
aa(lp19
S'Olls Rules!'
p20
aI34
aa(lp21
S'grit'
p22
aI14
aa(lp23
S'grit'
p24
aI25
aa(lp25
S'grit96'
p26
aI4
aa(lp27
S'grit'
p28
aI0
aa(lp29
S'grit96'
p30
aI0
aa(lp31
S'olls'
p32
aI22
aa(lp33
S'wills'
p34
aI17
aa(lp35
S'wills'
p36
aI21
aa(lp37
S'wills'
p38
aI12
aa(lp39
S'wills'
p40
aI19
aa(lp41
S'.-* OLLS *-.'
p42
aI77
aa(lp43
S'WILLS'
p44
aI0
aa(lp45
S'grit'
p46
aI10
aa(lp47
S'grit'
p48
aI6
aa(lp49
S'WILLLLS IS THE BEST!!!!!!!!!!!!!!!!!!!!!!!!!!!!!!! (EVEM BETTER THAN OLIVER AND GRIT)'
p50
aI23
aa(lp51
S'WILLS'
p52
aI7
aa(lp53
S'_.-* OLLS *-._'
p54
aI52
aa(lp55
S'o'
p56
aI2
aa(lp57
S' '
p58
aI5
aa(lp59
S'GRIT'
p60
aI17
aa(lp61
S'grit'
p62
aI24
aa(lp63
S'grit'
p64
aI27
aa(lp65
S'wills is the BEST!!!!!'
p66
aI48
aa(lp67
S' '
p68
aI1
aa(lp69
S'will'
p70
aI0
aa(lp71
S'grit'
p72
aI20
aa(lp73
S'wills '
p74
aI56
aa(lp75
S'olls'
p76
aI22
aa(lp77
S'olls'
p78
aI7
aa(lp79
S'wills'
p80
aI11
aa(lp81
S'wills'
p82
aI11
aa(lp83
S'grit'
p84
aI13
aa(lp85
S'olld'
p86
aI58
aa(lp87
S'olls'
p88
aI41
aa(lp89
S'olls'
p90
aI44
aa(lp91
S'olls'
p92
aI30
aa(lp93
S'olls'
p94
aI15
aa(lp95
S'olls'
p96
aI39
aa(lp97
S'grit96'
p98
aI4
aa(lp99
S'grit'
p100
aI19
aa(lp101
S'olls nexus7'
p102
aI17
aa(lp103
S'wills (Grit cheated!)'
p104
aI36
aa(lp105
S'olls'
p106
aI19
aa(lp107
S'olls'
p108
aI20
aa(lp109
S'grit'
p110
aI45
aa(lp111
S'Olls Nexus 7'
p112
aI48
aa(lp113
S'grit'
p114
aI48
aa(lp115
S'wills'
p116
aI116
aa(lp117
S'wills'
p118
aI2
aa(lp119
S'grit'
p120
aI33
aa(lp121
S'_.-+*| OLLS |*+-._'
p122
aI216
aa(lp123
S'olls'
p124
aI36
aa(lp125
S'olls'
p126
aI113
aa.
